target datalayout = "e-m:e-p270:32:32-p271:32:32-p272:64:64-i64:64-i128:128-f80:128-n8:16:32:64-S128"
target triple = "x86_64-pc-linux-gnu"

@WebPMultRow = hidden global ptr null, align 8

; Function Attrs: nounwind uwtable
define hidden void @WebPMultRows(ptr noalias noundef %0, i32 noundef %1, ptr noalias noundef %2, i32 noundef %3, i32 noundef %4, i32 noundef %5, i32 noundef %6) #0 {
  %8 = alloca ptr, align 8
  %9 = alloca i32, align 4
  %10 = alloca ptr, align 8
  %11 = alloca i32, align 4
  %12 = alloca i32, align 4
  %13 = alloca i32, align 4
  %14 = alloca i32, align 4
  %15 = alloca i32, align 4
  store ptr %0, ptr %8, align 8, !tbaa !13
  store i32 %1, ptr %9, align 4, !tbaa !8
  store ptr %2, ptr %10, align 8, !tbaa !13
  store i32 %3, ptr %11, align 4, !tbaa !8
  store i32 %4, ptr %12, align 4, !tbaa !8
  store i32 %5, ptr %13, align 4, !tbaa !8
  store i32 %6, ptr %14, align 4, !tbaa !8
  call void @llvm.lifetime.start.p0(i64 4, ptr %15) #5
  store i32 0, ptr %15, align 4, !tbaa !8
  br label %16

16:                                               ; preds = %34, %7
  %17 = load i32, ptr %15, align 4, !tbaa !8
  %18 = load i32, ptr %13, align 4, !tbaa !8
  %19 = icmp slt i32 %17, %18
  br i1 %19, label %20, label %37

20:                                               ; preds = %16
  %21 = load ptr, ptr @WebPMultRow, align 8, !tbaa !16
  %22 = load ptr, ptr %8, align 8, !tbaa !13
  %23 = load ptr, ptr %10, align 8, !tbaa !13
  %24 = load i32, ptr %12, align 4, !tbaa !8
  %25 = load i32, ptr %14, align 4, !tbaa !8
  call void %21(ptr noundef %22, ptr noundef %23, i32 noundef %24, i32 noundef %25)
  %26 = load i32, ptr %9, align 4, !tbaa !8
  %27 = load ptr, ptr %8, align 8, !tbaa !13
  %28 = sext i32 %26 to i64
  %29 = getelementptr inbounds i8, ptr %27, i64 %28
  store ptr %29, ptr %8, align 8, !tbaa !13
  %30 = load i32, ptr %11, align 4, !tbaa !8
  %31 = load ptr, ptr %10, align 8, !tbaa !13
  %32 = sext i32 %30 to i64
  %33 = getelementptr inbounds i8, ptr %31, i64 %32
  store ptr %33, ptr %10, align 8, !tbaa !13
  br label %34

34:                                               ; preds = %20
  %35 = load i32, ptr %15, align 4, !tbaa !8
  %36 = add nsw i32 %35, 1
  store i32 %36, ptr %15, align 4, !tbaa !8
  br label %16, !llvm.loop !18

37:                                               ; preds = %16
  call void @llvm.lifetime.end.p0(i64 4, ptr %15) #5
  ret void
}