; Function Attrs: nounwind uwtable
define hidden void @WebPMultRows(ptr noalias noundef %0, i32 noundef %1, ptr noalias noundef %2, i32 noundef %3, i32 noundef %4, i32 noundef %5, i32 noundef %6) local_unnamed_addr #1 {
  %8 = icmp sgt i32 %5, 0
  br i1 %8, label %.lr.ph, label %._crit_edge

.lr.ph:                                           ; preds = %7
  %9 = sext i32 %1 to i64
  %10 = sext i32 %3 to i64
  br label %11

11:                                               ; preds = %.lr.ph, %11
  %.014 = phi i32 [ 0, %.lr.ph ], [ %15, %11 ]
  %.01013 = phi ptr [ %0, %.lr.ph ], [ %13, %11 ]
  %.01112 = phi ptr [ %2, %.lr.ph ], [ %14, %11 ]
  %12 = load ptr, ptr @WebPMultRow, align 8, !tbaa !11
  tail call void %12(ptr noundef %.01013, ptr noundef %.01112, i32 noundef %4, i32 noundef %6) #5
  %13 = getelementptr inbounds i8, ptr %.01013, i64 %9
  %14 = getelementptr inbounds i8, ptr %.01112, i64 %10
  %15 = add nuw nsw i32 %.014, 1
  %exitcond.not = icmp eq i32 %15, %5
  br i1 %exitcond.not, label %._crit_edge, label %11, !llvm.loop !14

._crit_edge:                                      ; preds = %11, %7
  ret void
}